; Function Attrs: mustprogress uwtable
define noundef nonnull align 8 dereferenceable(64) ptr @_ZNK6icu_7512PluralFormat6formatERKNS_11FormattableERNS_13UnicodeStringERNS_13FieldPositionER10UErrorCode(ptr noundef nonnull align 8 dereferenceable(712) %this, ptr noundef nonnull align 8 dereferenceable(112) %obj, ptr noundef nonnull align 8 dereferenceable(64) %appendTo, ptr noundef nonnull align 8 dereferenceable(20) %pos, ptr noundef nonnull align 4 dereferenceable(4) %status) unnamed_addr #1 align 2 {
entry:
  %0 = load i32, ptr %status, align 4
  %cmp.i = icmp slt i32 %0, 1
  br i1 %cmp.i, label %if.end, label %return

if.end:                                           ; preds = %entry
  %call2 = tail call noundef signext i8 @_ZNK6icu_7511Formattable9isNumericEv(ptr noundef nonnull align 8 dereferenceable(112) %obj)
  %tobool3.not = icmp eq i8 %call2, 0
  br i1 %tobool3.not, label %if.else, label %if.then4

if.then4:                                         ; preds = %if.end
  %fValue.i = getelementptr inbounds i8, ptr %obj, i64 8
  %1 = load double, ptr %fValue.i, align 8
  %call6 = tail call noundef nonnull align 8 dereferenceable(64) ptr @_ZNK6icu_7512PluralFormat6formatERKNS_11FormattableEdRNS_13UnicodeStringERNS_13FieldPositionER10UErrorCode(ptr noundef nonnull align 8 dereferenceable(712) %this, ptr noundef nonnull align 8 dereferenceable(112) %obj, double noundef %1, ptr noundef nonnull align 8 dereferenceable(64) %appendTo, ptr noundef nonnull align 8 dereferenceable(20) %pos, ptr noundef nonnull align 4 dereferenceable(4) %status)
  br label %return

if.else:                                          ; preds = %if.end
  store i32 1, ptr %status, align 4
  br label %return

return:                                           ; preds = %entry, %if.else, %if.then4
  %retval.0 = phi ptr [ %call6, %if.then4 ], [ %appendTo, %if.else ], [ %appendTo, %entry ]
  ret ptr %retval.0
}